; Function Attrs: mustprogress nounwind uwtable
define hidden void @_ZNK14G1GCPhaseTimes11print_otherEd(ptr nocapture noundef nonnull readonly align 8 dereferenceable(872) %0, double noundef %1) local_unnamed_addr #0 align 2 {
  %3 = getelementptr inbounds i8, ptr %0, i64 16
  %4 = load double, ptr %3, align 8
  %5 = load volatile ptr, ptr getelementptr inbounds (i8, ptr @_ZN16LogTagSetMappingILN6LogTag4typeE49ELS1_114ELS1_0ELS1_0ELS1_0ELS1_0EE7_tagsetE, i64 64), align 8
  %.not.i = icmp eq ptr %5, null
  br i1 %.not.i, label %_ZNK14G1GCPhaseTimes9info_timeEPKcd.exit, label %6

6:                                                ; preds = %2
  %7 = fsub double %4, %1
  tail call void (ptr, ...) @_ZN7LogImplILN6LogTag4typeE49ELS1_114ELS1_0ELS1_0ELS1_0ELS1_0EE5writeILN8LogLevel4typeE3EEEvPKcz(ptr noundef nonnull @.str.119, ptr noundef nonnull @.str.55, double noundef %7)
  br label %_ZNK14G1GCPhaseTimes9info_timeEPKcd.exit

_ZNK14G1GCPhaseTimes9info_timeEPKcd.exit:         ; preds = %2, %6
  ret void
}